; Function Attrs: mustprogress uwtable
define hidden void @_ZN2cv8ximgproc12segmentation31SelectiveSearchSegmentationImpl20addGraphSegmentationENS_3PtrINS1_17GraphSegmentationEEE(ptr noundef nonnull align 8 dereferenceable(208) %0, ptr noundef %1) unnamed_addr #3 align 2 personality ptr @__gxx_personality_v0 {
  %3 = getelementptr inbounds nuw i8, ptr %0, i64 168
  %4 = load ptr, ptr %3, align 8, !tbaa !278
  %5 = getelementptr inbounds nuw i8, ptr %0, i64 176
  %6 = load ptr, ptr %5, align 8, !tbaa !281
  %.not.i = icmp eq ptr %4, %6
  br i1 %.not.i, label %22, label %7

7:                                                ; preds = %2
  %8 = load ptr, ptr %1, align 8, !tbaa !282
  store ptr %8, ptr %4, align 8, !tbaa !282
  %9 = getelementptr inbounds nuw i8, ptr %4, i64 8
  %10 = getelementptr inbounds nuw i8, ptr %1, i64 8
  %11 = load ptr, ptr %10, align 8, !tbaa !88
  store ptr %11, ptr %9, align 8, !tbaa !88
  %.not.i.i.i.i.i.i.i = icmp eq ptr %11, null
  br i1 %.not.i.i.i.i.i.i.i, label %_ZNSt16allocator_traitsISaIN2cv3PtrINS0_8ximgproc12segmentation17GraphSegmentationEEEEE9constructIS5_JRKS5_EEEvRS6_PT_DpOT0_.exit.i, label %12

12:                                               ; preds = %7
  %13 = getelementptr inbounds nuw i8, ptr %11, i64 8
  %14 = load i8, ptr @__libc_single_threaded, align 1, !tbaa !89
  %.not.i.i.i.i.i.i.i.i = icmp eq i8 %14, 0
  br i1 %.not.i.i.i.i.i.i.i.i, label %18, label %15

15:                                               ; preds = %12
  %16 = load i32, ptr %13, align 4, !tbaa !22
  %17 = add nsw i32 %16, 1
  store i32 %17, ptr %13, align 4, !tbaa !22
  br label %_ZNSt16allocator_traitsISaIN2cv3PtrINS0_8ximgproc12segmentation17GraphSegmentationEEEEE9constructIS5_JRKS5_EEEvRS6_PT_DpOT0_.exit.i

18:                                               ; preds = %12
  %19 = atomicrmw volatile add ptr %13, i32 1 acq_rel, align 4
  %.pre.i = load ptr, ptr %3, align 8, !tbaa !278
  br label %_ZNSt16allocator_traitsISaIN2cv3PtrINS0_8ximgproc12segmentation17GraphSegmentationEEEEE9constructIS5_JRKS5_EEEvRS6_PT_DpOT0_.exit.i

_ZNSt16allocator_traitsISaIN2cv3PtrINS0_8ximgproc12segmentation17GraphSegmentationEEEEE9constructIS5_JRKS5_EEEvRS6_PT_DpOT0_.exit.i: ; preds = %18, %15, %7
  %20 = phi ptr [ %4, %7 ], [ %4, %15 ], [ %.pre.i, %18 ]
  %21 = getelementptr inbounds nuw i8, ptr %20, i64 16
  store ptr %21, ptr %3, align 8, !tbaa !278
  br label %_ZNSt6vectorIN2cv3PtrINS0_8ximgproc12segmentation17GraphSegmentationEEESaIS5_EE9push_backERKS5_.exit

22:                                               ; preds = %2
  %23 = getelementptr inbounds nuw i8, ptr %0, i64 160
  tail call void @_ZNSt6vectorIN2cv3PtrINS0_8ximgproc12segmentation17GraphSegmentationEEESaIS5_EE17_M_realloc_insertIJRKS5_EEEvN9__gnu_cxx17__normal_iteratorIPS5_S7_EEDpOT_(ptr noundef nonnull align 8 dereferenceable(24) %23, ptr %4, ptr noundef nonnull align 8 dereferenceable(16) %1)
  br label %_ZNSt6vectorIN2cv3PtrINS0_8ximgproc12segmentation17GraphSegmentationEEESaIS5_EE9push_backERKS5_.exit

_ZNSt6vectorIN2cv3PtrINS0_8ximgproc12segmentation17GraphSegmentationEEESaIS5_EE9push_backERKS5_.exit: ; preds = %_ZNSt16allocator_traitsISaIN2cv3PtrINS0_8ximgproc12segmentation17GraphSegmentationEEEEE9constructIS5_JRKS5_EEEvRS6_PT_DpOT0_.exit.i, %22
  ret void
}